target datalayout = "e-m:e-p270:32:32-p271:32:32-p272:64:64-i64:64-i128:128-f80:128-n8:16:32:64-S128"
target triple = "x86_64-pc-linux-gnu"

@.str.27 = private unnamed_addr constant [8 x i8] c"encrypt\00", align 1
@.str.29 = private unnamed_addr constant [8 x i8] c"decrypt\00", align 1
@.str.31 = private unnamed_addr constant [5 x i8] c"sign\00", align 1
@.str.33 = private unnamed_addr constant [7 x i8] c"resign\00", align 1
@.str.35 = private unnamed_addr constant [7 x i8] c"verify\00", align 1
@.str.37 = private unnamed_addr constant [7 x i8] c"pk7out\00", align 1
@.str.208 = private unnamed_addr constant [20 x i8] c"(invalid operation)\00", align 1

; Function Attrs: nounwind uwtable
define internal ptr @operation_name(i32 noundef %0) #0 {
  %2 = alloca ptr, align 8
  %3 = alloca i32, align 4
  store i32 %0, ptr %3, align 4, !tbaa !4
  %4 = load i32, ptr %3, align 4, !tbaa !4
  switch i32 %4, label %11 [
    i32 17, label %5
    i32 34, label %6
    i32 83, label %7
    i32 118, label %8
    i32 36, label %9
    i32 53, label %10
  ]

5:                                                ; preds = %1
  store ptr @.str.27, ptr %2, align 8
  br label %12

6:                                                ; preds = %1
  store ptr @.str.29, ptr %2, align 8
  br label %12

7:                                                ; preds = %1
  store ptr @.str.31, ptr %2, align 8
  br label %12

8:                                                ; preds = %1
  store ptr @.str.33, ptr %2, align 8
  br label %12

9:                                                ; preds = %1
  store ptr @.str.35, ptr %2, align 8
  br label %12

10:                                               ; preds = %1
  store ptr @.str.37, ptr %2, align 8
  br label %12

11:                                               ; preds = %1
  store ptr @.str.208, ptr %2, align 8
  br label %12

12:                                               ; preds = %11, %10, %9, %8, %7, %6, %5
  %13 = load ptr, ptr %2, align 8
  ret ptr %13
}