; Function Attrs: mustprogress nofree norecurse nosync nounwind willreturn memory(none) uwtable
define internal fastcc noundef nonnull ptr @operation_name(i32 noundef %0) unnamed_addr #3 {
  switch i32 %0, label %7 [
    i32 17, label %8
    i32 34, label %2
    i32 83, label %3
    i32 118, label %4
    i32 36, label %5
    i32 53, label %6
  ]

2:                                                ; preds = %1
  br label %8

3:                                                ; preds = %1
  br label %8

4:                                                ; preds = %1
  br label %8

5:                                                ; preds = %1
  br label %8

6:                                                ; preds = %1
  br label %8

7:                                                ; preds = %1
  br label %8

8:                                                ; preds = %1, %7, %6, %5, %4, %3, %2
  %.0 = phi ptr [ @.str.208, %7 ], [ @.str.37, %6 ], [ @.str.35, %5 ], [ @.str.33, %4 ], [ @.str.31, %3 ], [ @.str.29, %2 ], [ @.str.27, %1 ]
  ret ptr %.0
}